; Function Attrs: nounwind uwtable
define void @png_set_expand_gray_1_2_4_to_8(ptr noalias noundef %0) local_unnamed_addr #0 {
  %.not.i = icmp eq ptr %0, null
  br i1 %.not.i, label %png_rtran_ok.exit.thread, label %2

2:                                                ; preds = %1
  %3 = getelementptr inbounds nuw i8, ptr %0, i64 304
  %4 = load i32, ptr %3, align 8, !tbaa !3, !alias.scope !104
  %5 = and i32 %4, 64
  %.not8.i = icmp eq i32 %5, 0
  br i1 %.not8.i, label %7, label %6

6:                                                ; preds = %2
  tail call void @png_app_error(ptr noundef nonnull %0, ptr noundef nonnull @.str.18) #11
  br label %png_rtran_ok.exit.thread

7:                                                ; preds = %2
  %8 = or i32 %4, 16384
  store i32 %8, ptr %3, align 8, !tbaa !3, !alias.scope !104
  %9 = getelementptr inbounds nuw i8, ptr %0, i64 308
  %10 = load i32, ptr %9, align 4, !tbaa !25
  %11 = or i32 %10, 4096
  store i32 %11, ptr %9, align 4, !tbaa !25
  br label %png_rtran_ok.exit.thread

png_rtran_ok.exit.thread:                         ; preds = %1, %6, %7
  ret void
}